; ModuleID = '32/1112.c'
source_filename = "32/1112.c"
target datalayout = "e-m:e-p270:32:32-p271:32:32-p272:64:64-i64:64-f80:128-n8:16:32:64-S128"
target triple = "x86_64-pc-linux-gnu"

@.str = private unnamed_addr constant [3 x i8] c"%d\00", align 1
@.str.1 = private unnamed_addr constant [5 x i8] c"%s%s\00", align 1
@.str.2 = private unnamed_addr constant [2 x i8] c"\0A\00", align 1

; Function Attrs: noinline nounwind uwtable
define dso_local i32 @main() #0 {
  %1 = alloca i32, align 4
  %2 = alloca [256 x i8], align 16
  %3 = alloca [256 x i8], align 16
  %4 = alloca [256 x i32], align 16
  %5 = alloca i32, align 4
  %6 = alloca i32, align 4
  %7 = alloca i32, align 4
  %8 = alloca i32, align 4
  %9 = alloca i32, align 4
  %10 = alloca i32, align 4
  %11 = alloca i32, align 4
  %12 = alloca i32, align 4
  store i32 0, i32* %1, align 4
  %13 = call i32 (i8*, ...) @__isoc99_scanf(i8* getelementptr inbounds ([3 x i8], [3 x i8]* @.str, i64 0, i64 0), i32* %10)
  store i32 0, i32* %11, align 4
  br label %14

14:                                               ; preds = %125, %0
  %15 = load i32, i32* %11, align 4
  %16 = load i32, i32* %10, align 4
  %17 = icmp slt i32 %15, %16
  br i1 %17, label %18, label %128

18:                                               ; preds = %14
  store i32 0, i32* %12, align 4
  %19 = getelementptr inbounds [256 x i32], [256 x i32]* %4, i64 0, i64 0
  %20 = bitcast i32* %19 to i8*
  call void @llvm.memset.p0i8.i64(i8* align 16 %20, i8 0, i64 1024, i1 false)
  %21 = getelementptr inbounds [256 x i8], [256 x i8]* %2, i64 0, i64 0
  %22 = getelementptr inbounds [256 x i8], [256 x i8]* %3, i64 0, i64 0
  %23 = call i32 (i8*, ...) @__isoc99_scanf(i8* getelementptr inbounds ([5 x i8], [5 x i8]* @.str.1, i64 0, i64 0), i8* %21, i8* %22)
  %24 = getelementptr inbounds [256 x i8], [256 x i8]* %2, i64 0, i64 0
  %25 = call i64 @strlen(i8* %24) #4
  %26 = trunc i64 %25 to i32
  store i32 %26, i32* %8, align 4
  %27 = getelementptr inbounds [256 x i8], [256 x i8]* %3, i64 0, i64 0
  %28 = call i64 @strlen(i8* %27) #4
  %29 = trunc i64 %28 to i32
  store i32 %29, i32* %9, align 4
  br label %30

30:                                               ; preds = %63, %18
  %31 = load i32, i32* %8, align 4
  %32 = icmp sgt i32 %31, 0
  br i1 %32, label %36, label %33

33:                                               ; preds = %30
  %34 = load i32, i32* %9, align 4
  %35 = icmp sgt i32 %34, 0
  br label %36

36:                                               ; preds = %33, %30
  %37 = phi i1 [ true, %30 ], [ %35, %33 ]
  br i1 %37, label %38, label %94

38:                                               ; preds = %36
  %39 = load i32, i32* %8, align 4
  %40 = icmp sgt i32 %39, 0
  br i1 %40, label %41, label %49

41:                                               ; preds = %38
  %42 = load i32, i32* %8, align 4
  %43 = add nsw i32 %42, -1
  store i32 %43, i32* %8, align 4
  %44 = sext i32 %43 to i64
  %45 = getelementptr inbounds [256 x i8], [256 x i8]* %2, i64 0, i64 %44
  %46 = load i8, i8* %45, align 1
  %47 = sext i8 %46 to i32
  %48 = sub nsw i32 %47, 48
  br label %50

49:                                               ; preds = %38
  br label %50

50:                                               ; preds = %49, %41
  %51 = phi i32 [ %48, %41 ], [ 0, %49 ]
  store i32 %51, i32* %5, align 4
  %52 = load i32, i32* %9, align 4
  %53 = icmp sgt i32 %52, 0
  br i1 %53, label %54, label %62

54:                                               ; preds = %50
  %55 = load i32, i32* %9, align 4
  %56 = add nsw i32 %55, -1
  store i32 %56, i32* %9, align 4
  %57 = sext i32 %56 to i64
  %58 = getelementptr inbounds [256 x i8], [256 x i8]* %3, i64 0, i64 %57
  %59 = load i8, i8* %58, align 1
  %60 = sext i8 %59 to i32
  %61 = sub nsw i32 %60, 48
  br label %63

62:                                               ; preds = %50
  br label %63

63:                                               ; preds = %62, %54
  %64 = phi i32 [ %61, %54 ], [ 0, %62 ]
  store i32 %64, i32* %6, align 4
  %65 = load i32, i32* %5, align 4
  %66 = load i32, i32* %6, align 4
  %67 = sub nsw i32 %65, %66
  %68 = load i32, i32* %12, align 4
  %69 = sext i32 %68 to i64
  %70 = getelementptr inbounds [256 x i32], [256 x i32]* %4, i64 0, i64 %69
  %71 = load i32, i32* %70, align 4
  %72 = add nsw i32 %71, %67
  store i32 %72, i32* %70, align 4
  %73 = load i32, i32* %12, align 4
  %74 = sext i32 %73 to i64
  %75 = getelementptr inbounds [256 x i32], [256 x i32]* %4, i64 0, i64 %74
  %76 = load i32, i32* %75, align 4
  %77 = sub nsw i32 %76, 9
  %78 = sdiv i32 %77, 10
  %79 = load i32, i32* %12, align 4
  %80 = add nsw i32 %79, 1
  %81 = sext i32 %80 to i64
  %82 = getelementptr inbounds [256 x i32], [256 x i32]* %4, i64 0, i64 %81
  store i32 %78, i32* %82, align 4
  %83 = load i32, i32* %12, align 4
  %84 = sext i32 %83 to i64
  %85 = getelementptr inbounds [256 x i32], [256 x i32]* %4, i64 0, i64 %84
  %86 = load i32, i32* %85, align 4
  %87 = add nsw i32 %86, 10
  %88 = srem i32 %87, 10
  %89 = load i32, i32* %12, align 4
  %90 = sext i32 %89 to i64
  %91 = getelementptr inbounds [256 x i32], [256 x i32]* %4, i64 0, i64 %90
  store i32 %88, i32* %91, align 4
  %92 = load i32, i32* %12, align 4
  %93 = add nsw i32 %92, 1
  store i32 %93, i32* %12, align 4
  br label %30

94:                                               ; preds = %36
  br label %95

95:                                               ; preds = %106, %94
  %96 = load i32, i32* %12, align 4
  %97 = sext i32 %96 to i64
  %98 = getelementptr inbounds [256 x i32], [256 x i32]* %4, i64 0, i64 %97
  %99 = load i32, i32* %98, align 4
  %100 = icmp eq i32 %99, 0
  br i1 %100, label %101, label %104

101:                                              ; preds = %95
  %102 = load i32, i32* %12, align 4
  %103 = icmp sgt i32 %102, 0
  br label %104

104:                                              ; preds = %101, %95
  %105 = phi i1 [ false, %95 ], [ %103, %101 ]
  br i1 %105, label %106, label %109

106:                                              ; preds = %104
  %107 = load i32, i32* %12, align 4
  %108 = add nsw i32 %107, -1
  store i32 %108, i32* %12, align 4
  br label %95

109:                                              ; preds = %104
  %110 = load i32, i32* %12, align 4
  store i32 %110, i32* %7, align 4
  br label %111

111:                                              ; preds = %120, %109
  %112 = load i32, i32* %7, align 4
  %113 = icmp sge i32 %112, 0
  br i1 %113, label %114, label %123

114:                                              ; preds = %111
  %115 = load i32, i32* %7, align 4
  %116 = sext i32 %115 to i64
  %117 = getelementptr inbounds [256 x i32], [256 x i32]* %4, i64 0, i64 %116
  %118 = load i32, i32* %117, align 4
  %119 = call i32 (i8*, ...) @printf(i8* getelementptr inbounds ([3 x i8], [3 x i8]* @.str, i64 0, i64 0), i32 %118)
  br label %120

120:                                              ; preds = %114
  %121 = load i32, i32* %7, align 4
  %122 = add nsw i32 %121, -1
  store i32 %122, i32* %7, align 4
  br label %111

123:                                              ; preds = %111
  %124 = call i32 (i8*, ...) @printf(i8* getelementptr inbounds ([2 x i8], [2 x i8]* @.str.2, i64 0, i64 0))
  br label %125

125:                                              ; preds = %123
  %126 = load i32, i32* %11, align 4
  %127 = add nsw i32 %126, 1
  store i32 %127, i32* %11, align 4
  br label %14

128:                                              ; preds = %14
  ret i32 0
}

declare dso_local i32 @__isoc99_scanf(i8*, ...) #1

; Function Attrs: argmemonly nounwind willreturn
declare void @llvm.memset.p0i8.i64(i8* nocapture writeonly, i8, i64, i1 immarg) #2

; Function Attrs: nounwind readonly
declare dso_local i64 @strlen(i8*) #3

declare dso_local i32 @printf(i8*, ...) #1


!llvm.module.flags = !{!0}
!llvm.ident = !{!1}

!0 = !{i32 1, !"wchar_size", i32 4}
!1 = !{!"clang version 10.0.0-4ubuntu1 "}
